target datalayout = "e-m:e-p270:32:32-p271:32:32-p272:64:64-i64:64-i128:128-f80:128-n8:16:32:64-S128"
target triple = "x86_64-pc-linux-gnu"

%struct.cli_all_bc = type { ptr, i32, ptr, %struct.cli_environment, i32 }
%struct.cli_environment = type { i32, i32, i32, i32, i32, i32, i32, [65 x i8], [65 x i8], [65 x i8], [65 x i8], [65 x i8], [65 x i8], [65 x i8], i8, i8, i8, i8, i8, i8, i8, i8, i8 }
%struct.cli_bc = type { %struct.bytecode_metadata, i32, i32, i32, i32, ptr, ptr, ptr, ptr, i64, i32, ptr, ptr, ptr, ptr, i32, i16, ptr, i32, i32, i32, i32, ptr, i32, i32, ptr }
%struct.bytecode_metadata = type { ptr, ptr, i64, i32, i32, i32, i32, i32 }

@.str = private unnamed_addr constant [78 x i8] c"Cannot prepare for JIT, because it has already been converted to interpreter\0A\00", align 1
@.str.1 = private unnamed_addr constant [60 x i8] c"Cannot prepare for JIT, LLVM is not compiled or not linked\0A\00", align 1
@.str.2 = private unnamed_addr constant [36 x i8] c"LLVM is not compiled or not linked\0A\00", align 1

; Function Attrs: nounwind uwtable
define i32 @cli_bytecode_prepare_jit(ptr noundef %0) #0 {
  %2 = alloca i32, align 4
  %3 = alloca ptr, align 8
  %4 = alloca i32, align 4
  store ptr %0, ptr %3, align 8
  store i32 0, ptr %4, align 4
  br label %5

5:                                                ; preds = %44, %1
  %6 = load i32, ptr %4, align 4
  %7 = load ptr, ptr %3, align 8
  %8 = getelementptr inbounds %struct.cli_all_bc, ptr %7, i32 0, i32 1
  %9 = load i32, ptr %8, align 8
  %10 = icmp ult i32 %6, %9
  br i1 %10, label %11, label %47

11:                                               ; preds = %5
  %12 = load ptr, ptr %3, align 8
  %13 = getelementptr inbounds %struct.cli_all_bc, ptr %12, i32 0, i32 0
  %14 = load ptr, ptr %13, align 8
  %15 = load i32, ptr %4, align 4
  %16 = zext i32 %15 to i64
  %17 = getelementptr inbounds %struct.cli_bc, ptr %14, i64 %16
  %18 = getelementptr inbounds %struct.cli_bc, ptr %17, i32 0, i32 10
  %19 = load i32, ptr %18, align 8
  %20 = icmp eq i32 %19, 0
  br i1 %20, label %21, label %22

21:                                               ; preds = %11
  br label %44

22:                                               ; preds = %11
  %23 = load ptr, ptr %3, align 8
  %24 = getelementptr inbounds %struct.cli_all_bc, ptr %23, i32 0, i32 0
  %25 = load ptr, ptr %24, align 8
  %26 = load i32, ptr %4, align 4
  %27 = zext i32 %26 to i64
  %28 = getelementptr inbounds %struct.cli_bc, ptr %25, i64 %27
  %29 = getelementptr inbounds %struct.cli_bc, ptr %28, i32 0, i32 10
  %30 = load i32, ptr %29, align 8
  %31 = icmp ne i32 %30, 1
  br i1 %31, label %32, label %43

32:                                               ; preds = %22
  %33 = load ptr, ptr %3, align 8
  %34 = getelementptr inbounds %struct.cli_all_bc, ptr %33, i32 0, i32 0
  %35 = load ptr, ptr %34, align 8
  %36 = load i32, ptr %4, align 4
  %37 = zext i32 %36 to i64
  %38 = getelementptr inbounds %struct.cli_bc, ptr %35, i64 %37
  %39 = getelementptr inbounds %struct.cli_bc, ptr %38, i32 0, i32 2
  %40 = load i32, ptr %39, align 4
  %41 = icmp ne i32 %40, 1
  br i1 %41, label %42, label %43

42:                                               ; preds = %32
  call void (ptr, ...) @cli_warnmsg(ptr noundef @.str)
  store i32 28, ptr %2, align 4
  br label %48

43:                                               ; preds = %32, %22
  br label %44

44:                                               ; preds = %43, %21
  %45 = load i32, ptr %4, align 4
  %46 = add i32 %45, 1
  store i32 %46, ptr %4, align 4
  br label %5

47:                                               ; preds = %5
  call void (ptr, ...) @cli_dbgmsg(ptr noundef @.str.1)
  store i32 28, ptr %2, align 4
  br label %48

48:                                               ; preds = %47, %42
  %49 = load i32, ptr %2, align 4
  ret i32 %49
}

declare void @cli_warnmsg(ptr noundef, ...) #1

declare void @cli_dbgmsg(ptr noundef, ...) #1

; Function Attrs: nounwind uwtable
define i32 @cli_vm_execute_jit(ptr noundef %0, ptr noundef %1, ptr noundef %2) #0 {
  %4 = alloca ptr, align 8
  %5 = alloca ptr, align 8
  %6 = alloca ptr, align 8
  store ptr %0, ptr %4, align 8
  store ptr %1, ptr %5, align 8
  store ptr %2, ptr %6, align 8
  ret i32 28
}

; Function Attrs: nounwind uwtable
define i32 @cli_bytecode_init_jit(ptr noundef %0, i32 noundef %1) #0 {
  %3 = alloca ptr, align 8
  %4 = alloca i32, align 4
  store ptr %0, ptr %3, align 8
  store i32 %1, ptr %4, align 4
  ret i32 0
}

; Function Attrs: nounwind uwtable
define i32 @cli_bytecode_done_jit(ptr noundef %0, i32 noundef %1) #0 {
  %3 = alloca ptr, align 8
  %4 = alloca i32, align 4
  store ptr %0, ptr %3, align 8
  store i32 %1, ptr %4, align 4
  ret i32 0
}

; Function Attrs: nounwind uwtable
define void @cli_bytecode_debug(i32 noundef %0, ptr noundef %1) #0 {
  %3 = alloca i32, align 4
  %4 = alloca ptr, align 8
  store i32 %0, ptr %3, align 4
  store ptr %1, ptr %4, align 8
  ret void
}

; Function Attrs: nounwind uwtable
define i32 @bytecode_init() #0 {
  ret i32 0
}

; Function Attrs: nounwind uwtable
define void @cli_bytecode_debug_printsrc(ptr noundef %0) #0 {
  %2 = alloca ptr, align 8
  store ptr %0, ptr %2, align 8
  ret void
}

; Function Attrs: nounwind uwtable
define void @cli_bytecode_printversion() #0 {
  %1 = call i32 (ptr, ...) @printf(ptr noundef @.str.2)
  ret void
}

declare i32 @printf(ptr noundef, ...) #1

; Function Attrs: nounwind uwtable
define zeroext i1 @have_clamjit() #0 {
  ret i1 false
}

; Function Attrs: nounwind uwtable
define void @cli_printcxxver() #0 {
  ret void
}

; Function Attrs: nounwind uwtable
define void @cli_detect_env_jit(ptr noundef %0) #0 {
  %2 = alloca ptr, align 8
  store ptr %0, ptr %2, align 8
  ret void
}


!llvm.module.flags = !{!0, !1, !2, !3}

!0 = !{i32 1, !"wchar_size", i32 4}
!1 = !{i32 8, !"PIC Level", i32 2}
!2 = !{i32 7, !"uwtable", i32 2}
!3 = !{i32 7, !"frame-pointer", i32 2}
