; ModuleID = 'bench/clamav/original/bytecode_nojit.c.ll'
source_filename = "bench/clamav/original/bytecode_nojit.c.ll"
target datalayout = "e-m:e-p270:32:32-p271:32:32-p272:64:64-i64:64-i128:128-f80:128-n8:16:32:64-S128"
target triple = "x86_64-pc-linux-gnu"

%struct.cli_bc = type { %struct.bytecode_metadata, i32, i32, i32, i32, ptr, ptr, ptr, ptr, i64, i32, ptr, ptr, ptr, ptr, i32, i16, ptr, i32, i32, i32, i32, ptr, i32, i32, ptr }
%struct.bytecode_metadata = type { ptr, ptr, i64, i32, i32, i32, i32, i32 }

@.str = private unnamed_addr constant [78 x i8] c"Cannot prepare for JIT, because it has already been converted to interpreter\0A\00", align 1
@.str.1 = private unnamed_addr constant [60 x i8] c"Cannot prepare for JIT, LLVM is not compiled or not linked\0A\00", align 1
@str = private unnamed_addr constant [35 x i8] c"LLVM is not compiled or not linked\00", align 1

; Function Attrs: nounwind uwtable
define noundef i32 @cli_bytecode_prepare_jit(ptr nocapture noundef readonly %0) local_unnamed_addr #0 {
  %2 = getelementptr inbounds i8, ptr %0, i64 8
  %3 = load i32, ptr %2, align 8
  %.not = icmp eq i32 %3, 0
  br i1 %.not, label %._crit_edge, label %.lr.ph

.lr.ph:                                           ; preds = %1
  %4 = load ptr, ptr %0, align 8
  %wide.trip.count = zext i32 %3 to i64
  br label %5

5:                                                ; preds = %.lr.ph, %13
  %indvars.iv = phi i64 [ 0, %.lr.ph ], [ %indvars.iv.next, %13 ]
  %6 = getelementptr inbounds %struct.cli_bc, ptr %4, i64 %indvars.iv
  %7 = getelementptr inbounds i8, ptr %6, i64 104
  %8 = load i32, ptr %7, align 8
  %switch = icmp ult i32 %8, 2
  br i1 %switch, label %13, label %9

9:                                                ; preds = %5
  %10 = getelementptr inbounds i8, ptr %6, i64 52
  %11 = load i32, ptr %10, align 4
  %.not11 = icmp eq i32 %11, 1
  br i1 %.not11, label %13, label %12

12:                                               ; preds = %9
  tail call void (ptr, ...) @cli_warnmsg(ptr noundef nonnull @.str) #5
  br label %14

13:                                               ; preds = %5, %9
  %indvars.iv.next = add nuw nsw i64 %indvars.iv, 1
  %exitcond.not = icmp eq i64 %indvars.iv.next, %wide.trip.count
  br i1 %exitcond.not, label %._crit_edge, label %5

._crit_edge:                                      ; preds = %13, %1
  tail call void (ptr, ...) @cli_dbgmsg(ptr noundef nonnull @.str.1) #5
  br label %14

14:                                               ; preds = %._crit_edge, %12
  ret i32 28
}

declare void @cli_warnmsg(ptr noundef, ...) local_unnamed_addr #1

declare void @cli_dbgmsg(ptr noundef, ...) local_unnamed_addr #1

; Function Attrs: mustprogress nofree norecurse nosync nounwind willreturn memory(none) uwtable
define noundef i32 @cli_vm_execute_jit(ptr nocapture noundef readnone %0, ptr nocapture noundef readnone %1, ptr nocapture noundef readnone %2) local_unnamed_addr #2 {
  ret i32 28
}

; Function Attrs: mustprogress nofree norecurse nosync nounwind willreturn memory(none) uwtable
define noundef i32 @cli_bytecode_init_jit(ptr nocapture noundef readnone %0, i32 noundef %1) local_unnamed_addr #2 {
  ret i32 0
}

; Function Attrs: mustprogress nofree norecurse nosync nounwind willreturn memory(none) uwtable
define noundef i32 @cli_bytecode_done_jit(ptr nocapture noundef readnone %0, i32 noundef %1) local_unnamed_addr #2 {
  ret i32 0
}

; Function Attrs: mustprogress nofree norecurse nosync nounwind willreturn memory(none) uwtable
define void @cli_bytecode_debug(i32 noundef %0, ptr nocapture noundef readnone %1) local_unnamed_addr #2 {
  ret void
}

; Function Attrs: mustprogress nofree norecurse nosync nounwind willreturn memory(none) uwtable
define noundef i32 @bytecode_init() local_unnamed_addr #2 {
  ret i32 0
}

; Function Attrs: mustprogress nofree norecurse nosync nounwind willreturn memory(none) uwtable
define void @cli_bytecode_debug_printsrc(ptr nocapture noundef readnone %0) local_unnamed_addr #2 {
  ret void
}

; Function Attrs: nofree nounwind uwtable
define void @cli_bytecode_printversion() local_unnamed_addr #3 {
  %puts = tail call i32 @puts(ptr nonnull dereferenceable(1) @str)
  ret void
}

; Function Attrs: mustprogress nofree norecurse nosync nounwind willreturn memory(none) uwtable
define noundef zeroext i1 @have_clamjit() local_unnamed_addr #2 {
  ret i1 false
}

; Function Attrs: mustprogress nofree norecurse nosync nounwind willreturn memory(none) uwtable
define void @cli_printcxxver() local_unnamed_addr #2 {
  ret void
}

; Function Attrs: mustprogress nofree norecurse nosync nounwind willreturn memory(none) uwtable
define void @cli_detect_env_jit(ptr nocapture noundef readnone %0) local_unnamed_addr #2 {
  ret void
}

; Function Attrs: nofree nounwind
declare noundef i32 @puts(ptr nocapture noundef readonly) local_unnamed_addr #4


!llvm.module.flags = !{!0, !1, !2, !3}

!0 = !{i32 1, !"wchar_size", i32 4}
!1 = !{i32 8, !"PIC Level", i32 2}
!2 = !{i32 7, !"uwtable", i32 2}
!3 = !{i32 7, !"frame-pointer", i32 2}
